target datalayout = "e-m:e-p270:32:32-p271:32:32-p272:64:64-i64:64-i128:128-f80:128-n8:16:32:64-S128"
target triple = "x86_64-pc-linux-gnu"

@currentlyReindexedHeap = internal global i32 0, align 4
@currentlyReindexedIndex = internal global i32 0, align 4
@pendingReindexedIndexes = internal global ptr null, align 8
@reindexingNestLevel = internal global i32 0, align 4

; Function Attrs: nounwind uwtable
define dso_local void @ResetReindexState(i32 noundef %0) #0 {
  %2 = alloca i32, align 4
  store i32 %0, ptr %2, align 4
  %3 = load i32, ptr @reindexingNestLevel, align 4
  %4 = load i32, ptr %2, align 4
  %5 = icmp sge i32 %3, %4
  br i1 %5, label %6, label %7

6:                                                ; preds = %1
  store i32 0, ptr @currentlyReindexedHeap, align 4
  store i32 0, ptr @currentlyReindexedIndex, align 4
  store ptr null, ptr @pendingReindexedIndexes, align 8
  store i32 0, ptr @reindexingNestLevel, align 4
  br label %7

7:                                                ; preds = %6, %1
  ret void
}