; Function Attrs: mustprogress nofree norecurse nosync nounwind willreturn memory(readwrite, argmem: none, inaccessiblemem: none) uwtable
define dso_local void @ResetReindexState(i32 noundef %0) local_unnamed_addr #7 {
  %2 = load i32, ptr @reindexingNestLevel, align 4
  %.not = icmp slt i32 %2, %0
  br i1 %.not, label %4, label %3

3:                                                ; preds = %1
  store i32 0, ptr @currentlyReindexedHeap, align 4
  store i32 0, ptr @currentlyReindexedIndex, align 4
  store ptr null, ptr @pendingReindexedIndexes, align 8
  store i32 0, ptr @reindexingNestLevel, align 4
  br label %4

4:                                                ; preds = %3, %1
  ret void
}